target datalayout = "e-m:e-p270:32:32-p271:32:32-p272:64:64-i64:64-i128:128-f80:128-n8:16:32:64-S128"
target triple = "x86_64-pc-linux-gnu"

%struct.H266RawNALUnitHeader = type { i8, i8, i8, i8 }

@.str.53 = private unnamed_addr constant [19 x i8] c"forbidden_zero_bit\00", align 1
@.str.55 = private unnamed_addr constant [14 x i8] c"nal_unit_type\00", align 1
@.str.266 = private unnamed_addr constant [13 x i8] c"nuh_layer_id\00", align 1
@.str.267 = private unnamed_addr constant [22 x i8] c"nuh_temporal_id_plus1\00", align 1
@.str.608 = private unnamed_addr constant [22 x i8] c"nuh_reserved_zero_bit\00", align 1

; Function Attrs: nounwind uwtable
define internal i32 @cbs_h266_read_nal_unit_header(ptr noundef %0, ptr noundef %1, ptr noundef %2, i32 noundef %3) #0 {
  %5 = alloca i32, align 4
  %6 = alloca ptr, align 8
  %7 = alloca ptr, align 8
  %8 = alloca ptr, align 8
  %9 = alloca i32, align 4
  %10 = alloca i32, align 4
  %11 = alloca i32, align 4
  %12 = alloca i32, align 4
  %13 = alloca i32, align 4
  %14 = alloca i32, align 4
  %15 = alloca i32, align 4
  %16 = alloca i32, align 4
  %17 = alloca i32, align 4
  %18 = alloca i32, align 4
  store ptr %0, ptr %6, align 8, !tbaa !4
  store ptr %1, ptr %7, align 8, !tbaa !196
  store ptr %2, ptr %8, align 8, !tbaa !1333
  store i32 %3, ptr %9, align 4, !tbaa !11
  call void @llvm.lifetime.start.p0(i64 4, ptr %10) #11
  br label %19

19:                                               ; preds = %4
  call void @llvm.lifetime.start.p0(i64 4, ptr %11) #11
  store i32 0, ptr %11, align 4, !tbaa !11
  br label %20

20:                                               ; preds = %19
  call void @llvm.lifetime.start.p0(i64 4, ptr %12) #11
  br label %21

21:                                               ; preds = %20
  %22 = load ptr, ptr %6, align 8, !tbaa !4
  %23 = load ptr, ptr %7, align 8, !tbaa !196
  %24 = call i32 @ff_cbs_read_unsigned(ptr noundef %22, ptr noundef %23, i32 noundef 1, ptr noundef @.str.53, ptr noundef null, ptr noundef %12, i32 noundef 0, i32 noundef 0)
  store i32 %24, ptr %10, align 4, !tbaa !11
  %25 = load i32, ptr %10, align 4, !tbaa !11
  %26 = icmp slt i32 %25, 0
  br i1 %26, label %27, label %29

27:                                               ; preds = %21
  %28 = load i32, ptr %10, align 4, !tbaa !11
  store i32 %28, ptr %5, align 4
  store i32 1, ptr %13, align 4
  br label %33

29:                                               ; preds = %21
  br label %30

30:                                               ; preds = %29
  br label %31

31:                                               ; preds = %30
  %32 = load i32, ptr %12, align 4, !tbaa !11
  store i32 %32, ptr %11, align 4, !tbaa !11
  store i32 0, ptr %13, align 4
  br label %33

33:                                               ; preds = %31, %27
  call void @llvm.lifetime.end.p0(i64 4, ptr %12) #11
  %34 = load i32, ptr %13, align 4
  switch i32 %34, label %38 [
    i32 0, label %35
  ]

35:                                               ; preds = %33
  br label %36

36:                                               ; preds = %35
  br label %37

37:                                               ; preds = %36
  store i32 0, ptr %13, align 4
  br label %38

38:                                               ; preds = %37, %33
  call void @llvm.lifetime.end.p0(i64 4, ptr %11) #11
  %39 = load i32, ptr %13, align 4
  switch i32 %39, label %155 [
    i32 0, label %40
  ]

40:                                               ; preds = %38
  br label %41

41:                                               ; preds = %40
  br label %42

42:                                               ; preds = %41
  br label %43

43:                                               ; preds = %42
  call void @llvm.lifetime.start.p0(i64 4, ptr %14) #11
  br label %44

44:                                               ; preds = %43
  %45 = load ptr, ptr %6, align 8, !tbaa !4
  %46 = load ptr, ptr %7, align 8, !tbaa !196
  %47 = call i32 @ff_cbs_read_simple_unsigned(ptr noundef %45, ptr noundef %46, i32 noundef 1, ptr noundef @.str.608, ptr noundef %14)
  store i32 %47, ptr %10, align 4, !tbaa !11
  %48 = load i32, ptr %10, align 4, !tbaa !11
  %49 = icmp slt i32 %48, 0
  br i1 %49, label %50, label %52

50:                                               ; preds = %44
  %51 = load i32, ptr %10, align 4, !tbaa !11
  store i32 %51, ptr %5, align 4
  store i32 1, ptr %13, align 4
  br label %59

52:                                               ; preds = %44
  br label %53

53:                                               ; preds = %52
  br label %54

54:                                               ; preds = %53
  %55 = load i32, ptr %14, align 4, !tbaa !11
  %56 = trunc i32 %55 to i8
  %57 = load ptr, ptr %8, align 8, !tbaa !1333
  %58 = getelementptr inbounds nuw %struct.H266RawNALUnitHeader, ptr %57, i32 0, i32 3
  store i8 %56, ptr %58, align 1, !tbaa !1335
  store i32 0, ptr %13, align 4
  br label %59

59:                                               ; preds = %54, %50
  call void @llvm.lifetime.end.p0(i64 4, ptr %14) #11
  %60 = load i32, ptr %13, align 4
  switch i32 %60, label %155 [
    i32 0, label %61
  ]

61:                                               ; preds = %59
  br label %62

62:                                               ; preds = %61
  br label %63

63:                                               ; preds = %62
  br label %64

64:                                               ; preds = %63
  call void @llvm.lifetime.start.p0(i64 4, ptr %15) #11
  br label %65

65:                                               ; preds = %64
  %66 = load ptr, ptr %6, align 8, !tbaa !4
  %67 = load ptr, ptr %7, align 8, !tbaa !196
  %68 = call i32 @ff_cbs_read_unsigned(ptr noundef %66, ptr noundef %67, i32 noundef 6, ptr noundef @.str.266, ptr noundef null, ptr noundef %15, i32 noundef 0, i32 noundef 55)
  store i32 %68, ptr %10, align 4, !tbaa !11
  %69 = load i32, ptr %10, align 4, !tbaa !11
  %70 = icmp slt i32 %69, 0
  br i1 %70, label %71, label %73

71:                                               ; preds = %65
  %72 = load i32, ptr %10, align 4, !tbaa !11
  store i32 %72, ptr %5, align 4
  store i32 1, ptr %13, align 4
  br label %80

73:                                               ; preds = %65
  br label %74

74:                                               ; preds = %73
  br label %75

75:                                               ; preds = %74
  %76 = load i32, ptr %15, align 4, !tbaa !11
  %77 = trunc i32 %76 to i8
  %78 = load ptr, ptr %8, align 8, !tbaa !1333
  %79 = getelementptr inbounds nuw %struct.H266RawNALUnitHeader, ptr %78, i32 0, i32 0
  store i8 %77, ptr %79, align 1, !tbaa !1336
  store i32 0, ptr %13, align 4
  br label %80

80:                                               ; preds = %75, %71
  call void @llvm.lifetime.end.p0(i64 4, ptr %15) #11
  %81 = load i32, ptr %13, align 4
  switch i32 %81, label %155 [
    i32 0, label %82
  ]

82:                                               ; preds = %80
  br label %83

83:                                               ; preds = %82
  br label %84

84:                                               ; preds = %83
  %85 = load i32, ptr %9, align 4, !tbaa !11
  %86 = icmp sge i32 %85, 0
  br i1 %86, label %87, label %111

87:                                               ; preds = %84
  br label %88

88:                                               ; preds = %87
  call void @llvm.lifetime.start.p0(i64 4, ptr %16) #11
  br label %89

89:                                               ; preds = %88
  %90 = load ptr, ptr %6, align 8, !tbaa !4
  %91 = load ptr, ptr %7, align 8, !tbaa !196
  %92 = load i32, ptr %9, align 4, !tbaa !11
  %93 = load i32, ptr %9, align 4, !tbaa !11
  %94 = call i32 @ff_cbs_read_unsigned(ptr noundef %90, ptr noundef %91, i32 noundef 5, ptr noundef @.str.55, ptr noundef null, ptr noundef %16, i32 noundef %92, i32 noundef %93)
  store i32 %94, ptr %10, align 4, !tbaa !11
  %95 = load i32, ptr %10, align 4, !tbaa !11
  %96 = icmp slt i32 %95, 0
  br i1 %96, label %97, label %99

97:                                               ; preds = %89
  %98 = load i32, ptr %10, align 4, !tbaa !11
  store i32 %98, ptr %5, align 4
  store i32 1, ptr %13, align 4
  br label %106

99:                                               ; preds = %89
  br label %100

100:                                              ; preds = %99
  br label %101

101:                                              ; preds = %100
  %102 = load i32, ptr %16, align 4, !tbaa !11
  %103 = trunc i32 %102 to i8
  %104 = load ptr, ptr %8, align 8, !tbaa !1333
  %105 = getelementptr inbounds nuw %struct.H266RawNALUnitHeader, ptr %104, i32 0, i32 1
  store i8 %103, ptr %105, align 1, !tbaa !1337
  store i32 0, ptr %13, align 4
  br label %106

106:                                              ; preds = %101, %97
  call void @llvm.lifetime.end.p0(i64 4, ptr %16) #11
  %107 = load i32, ptr %13, align 4
  switch i32 %107, label %155 [
    i32 0, label %108
  ]

108:                                              ; preds = %106
  br label %109

109:                                              ; preds = %108
  br label %110

110:                                              ; preds = %109
  br label %133

111:                                              ; preds = %84
  br label %112

112:                                              ; preds = %111
  call void @llvm.lifetime.start.p0(i64 4, ptr %17) #11
  br label %113

113:                                              ; preds = %112
  %114 = load ptr, ptr %6, align 8, !tbaa !4
  %115 = load ptr, ptr %7, align 8, !tbaa !196
  %116 = call i32 @ff_cbs_read_simple_unsigned(ptr noundef %114, ptr noundef %115, i32 noundef 5, ptr noundef @.str.55, ptr noundef %17)
  store i32 %116, ptr %10, align 4, !tbaa !11
  %117 = load i32, ptr %10, align 4, !tbaa !11
  %118 = icmp slt i32 %117, 0
  br i1 %118, label %119, label %121

119:                                              ; preds = %113
  %120 = load i32, ptr %10, align 4, !tbaa !11
  store i32 %120, ptr %5, align 4
  store i32 1, ptr %13, align 4
  br label %128

121:                                              ; preds = %113
  br label %122

122:                                              ; preds = %121
  br label %123

123:                                              ; preds = %122
  %124 = load i32, ptr %17, align 4, !tbaa !11
  %125 = trunc i32 %124 to i8
  %126 = load ptr, ptr %8, align 8, !tbaa !1333
  %127 = getelementptr inbounds nuw %struct.H266RawNALUnitHeader, ptr %126, i32 0, i32 1
  store i8 %125, ptr %127, align 1, !tbaa !1337
  store i32 0, ptr %13, align 4
  br label %128

128:                                              ; preds = %123, %119
  call void @llvm.lifetime.end.p0(i64 4, ptr %17) #11
  %129 = load i32, ptr %13, align 4
  switch i32 %129, label %155 [
    i32 0, label %130
  ]

130:                                              ; preds = %128
  br label %131

131:                                              ; preds = %130
  br label %132

132:                                              ; preds = %131
  br label %133

133:                                              ; preds = %132, %110
  br label %134

134:                                              ; preds = %133
  call void @llvm.lifetime.start.p0(i64 4, ptr %18) #11
  br label %135

135:                                              ; preds = %134
  %136 = load ptr, ptr %6, align 8, !tbaa !4
  %137 = load ptr, ptr %7, align 8, !tbaa !196
  %138 = call i32 @ff_cbs_read_unsigned(ptr noundef %136, ptr noundef %137, i32 noundef 3, ptr noundef @.str.267, ptr noundef null, ptr noundef %18, i32 noundef 1, i32 noundef 7)
  store i32 %138, ptr %10, align 4, !tbaa !11
  %139 = load i32, ptr %10, align 4, !tbaa !11
  %140 = icmp slt i32 %139, 0
  br i1 %140, label %141, label %143

141:                                              ; preds = %135
  %142 = load i32, ptr %10, align 4, !tbaa !11
  store i32 %142, ptr %5, align 4
  store i32 1, ptr %13, align 4
  br label %150

143:                                              ; preds = %135
  br label %144

144:                                              ; preds = %143
  br label %145

145:                                              ; preds = %144
  %146 = load i32, ptr %18, align 4, !tbaa !11
  %147 = trunc i32 %146 to i8
  %148 = load ptr, ptr %8, align 8, !tbaa !1333
  %149 = getelementptr inbounds nuw %struct.H266RawNALUnitHeader, ptr %148, i32 0, i32 2
  store i8 %147, ptr %149, align 1, !tbaa !1338
  store i32 0, ptr %13, align 4
  br label %150

150:                                              ; preds = %145, %141
  call void @llvm.lifetime.end.p0(i64 4, ptr %18) #11
  %151 = load i32, ptr %13, align 4
  switch i32 %151, label %155 [
    i32 0, label %152
  ]

152:                                              ; preds = %150
  br label %153

153:                                              ; preds = %152
  br label %154

154:                                              ; preds = %153
  store i32 0, ptr %5, align 4
  store i32 1, ptr %13, align 4
  br label %155

155:                                              ; preds = %154, %150, %128, %106, %80, %59, %38
  call void @llvm.lifetime.end.p0(i64 4, ptr %10) #11
  %156 = load i32, ptr %5, align 4
  ret i32 %156
}