; Function Attrs: nounwind uwtable
define internal fastcc range(i32 -2147483648, 1) i32 @cbs_h266_read_nal_unit_header(ptr noundef %0, ptr noundef nonnull %1, ptr noundef writeonly captures(none) %2, i32 noundef range(i32 -1, 25) %3) unnamed_addr #0 {
  %5 = alloca i32, align 4
  %6 = alloca i32, align 4
  %7 = alloca i32, align 4
  %8 = alloca i32, align 4
  %9 = alloca i32, align 4
  %10 = alloca i32, align 4
  call void @llvm.lifetime.start.p0(i64 4, ptr nonnull %5) #11
  %11 = call i32 @ff_cbs_read_unsigned(ptr noundef %0, ptr noundef nonnull %1, i32 noundef 1, ptr noundef nonnull @.str.53, ptr noundef null, ptr noundef nonnull %5, i32 noundef 0, i32 noundef 0) #11
  %12 = icmp sgt i32 %11, -1
  call void @llvm.lifetime.end.p0(i64 4, ptr nonnull %5) #11
  br i1 %12, label %13, label %50

13:                                               ; preds = %4
  call void @llvm.lifetime.start.p0(i64 4, ptr nonnull %6) #11
  %14 = call i32 @ff_cbs_read_simple_unsigned(ptr noundef %0, ptr noundef nonnull %1, i32 noundef 1, ptr noundef nonnull @.str.608, ptr noundef nonnull %6) #11
  %15 = icmp sgt i32 %14, -1
  br i1 %15, label %17, label %16

16:                                               ; preds = %13
  call void @llvm.lifetime.end.p0(i64 4, ptr nonnull %6) #11
  br label %50

17:                                               ; preds = %13
  %18 = load i32, ptr %6, align 4, !tbaa !63
  %19 = trunc i32 %18 to i8
  %20 = getelementptr inbounds nuw i8, ptr %2, i64 3
  store i8 %19, ptr %20, align 1, !tbaa !1357
  call void @llvm.lifetime.end.p0(i64 4, ptr nonnull %6) #11
  call void @llvm.lifetime.start.p0(i64 4, ptr nonnull %7) #11
  %21 = call i32 @ff_cbs_read_unsigned(ptr noundef %0, ptr noundef nonnull %1, i32 noundef 6, ptr noundef nonnull @.str.266, ptr noundef null, ptr noundef nonnull %7, i32 noundef 0, i32 noundef 55) #11
  %22 = icmp sgt i32 %21, -1
  br i1 %22, label %24, label %23

23:                                               ; preds = %17
  call void @llvm.lifetime.end.p0(i64 4, ptr nonnull %7) #11
  br label %50

24:                                               ; preds = %17
  %25 = load i32, ptr %7, align 4, !tbaa !63
  %26 = trunc i32 %25 to i8
  store i8 %26, ptr %2, align 1, !tbaa !1358
  call void @llvm.lifetime.end.p0(i64 4, ptr nonnull %7) #11
  %27 = icmp sgt i32 %3, -1
  br i1 %27, label %28, label %35

28:                                               ; preds = %24
  call void @llvm.lifetime.start.p0(i64 4, ptr nonnull %8) #11
  %29 = call i32 @ff_cbs_read_unsigned(ptr noundef %0, ptr noundef nonnull %1, i32 noundef 5, ptr noundef nonnull @.str.55, ptr noundef null, ptr noundef nonnull %8, i32 noundef %3, i32 noundef %3) #11
  %30 = icmp sgt i32 %29, -1
  br i1 %30, label %.thread62, label %34

.thread62:                                        ; preds = %28
  %31 = load i32, ptr %8, align 4, !tbaa !63
  %32 = trunc i32 %31 to i8
  %33 = getelementptr inbounds nuw i8, ptr %2, i64 1
  store i8 %32, ptr %33, align 1, !tbaa !1359
  call void @llvm.lifetime.end.p0(i64 4, ptr nonnull %8) #11
  br label %42

34:                                               ; preds = %28
  call void @llvm.lifetime.end.p0(i64 4, ptr nonnull %8) #11
  br label %50

35:                                               ; preds = %24
  call void @llvm.lifetime.start.p0(i64 4, ptr nonnull %9) #11
  %36 = call i32 @ff_cbs_read_simple_unsigned(ptr noundef %0, ptr noundef nonnull %1, i32 noundef 5, ptr noundef nonnull @.str.55, ptr noundef nonnull %9) #11
  %37 = icmp sgt i32 %36, -1
  br i1 %37, label %.thread64, label %41

.thread64:                                        ; preds = %35
  %38 = load i32, ptr %9, align 4, !tbaa !63
  %39 = trunc i32 %38 to i8
  %40 = getelementptr inbounds nuw i8, ptr %2, i64 1
  store i8 %39, ptr %40, align 1, !tbaa !1359
  call void @llvm.lifetime.end.p0(i64 4, ptr nonnull %9) #11
  br label %42

41:                                               ; preds = %35
  call void @llvm.lifetime.end.p0(i64 4, ptr nonnull %9) #11
  br label %50

42:                                               ; preds = %.thread64, %.thread62
  call void @llvm.lifetime.start.p0(i64 4, ptr nonnull %10) #11
  %43 = call i32 @ff_cbs_read_unsigned(ptr noundef %0, ptr noundef nonnull %1, i32 noundef 3, ptr noundef nonnull @.str.267, ptr noundef null, ptr noundef nonnull %10, i32 noundef 1, i32 noundef 7) #11
  %44 = icmp sgt i32 %43, -1
  br i1 %44, label %45, label %49

45:                                               ; preds = %42
  %46 = load i32, ptr %10, align 4, !tbaa !63
  %47 = trunc i32 %46 to i8
  %48 = getelementptr inbounds nuw i8, ptr %2, i64 2
  store i8 %47, ptr %48, align 1, !tbaa !1360
  br label %49

49:                                               ; preds = %42, %45
  %spec.select = phi i32 [ 0, %45 ], [ %43, %42 ]
  call void @llvm.lifetime.end.p0(i64 4, ptr nonnull %10) #11
  br label %50

50:                                               ; preds = %41, %34, %23, %16, %49, %4
  %.146 = phi i32 [ %29, %34 ], [ %36, %41 ], [ %21, %23 ], [ %14, %16 ], [ %11, %4 ], [ %spec.select, %49 ]
  ret i32 %.146
}